Certificate:
    Data:
        Version: 3 (0x2)
        Serial Number: 1 (0x1)
        Signature Algorithm: sha256WithRSAEncryption
        Issuer: C=IN, ST=Jharkhand, L=Ranchi, O=None, OU=None, CN=pbkdev/emailAddress=ayushashi11@gmail.com
        Validity
            Not Before: May 10 10:39:56 2020 GMT
            Not After : May 10 10:39:56 2021 GMT
        Subject: C=IN, ST=Jharkhand, O=None, OU=None, CN=pbkdev/emailAddress=ayushashi11@gmail.com
        Subject Public Key Info:
            Public Key Algorithm: rsaEncryption
                RSA Public-Key: (4096 bit)
                Modulus:
                    00:f7:b8:85:0f:92:32:3c:0e:ed:a5:4d:06:4a:23:
                    ab:ab:78:77:1e:ed:35:c9:51:d0:00:32:39:61:b6:
                    f4:72:91:28:c2:40:27:ad:58:9b:a8:7a:4a:8f:91:
                    82:ef:85:c4:55:52:07:85:cd:30:da:4e:e2:88:ad:
                    ca:77:ad:66:e5:72:d1:00:3f:2c:e4:fb:69:a4:c9:
                    b6:3d:22:52:39:c6:76:f1:9e:27:e6:af:89:d8:7e:
                    c7:d5:c8:e7:45:fb:d7:87:70:fe:37:f4:fa:33:bc:
                    e1:cb:e6:9c:02:d3:ee:20:22:34:be:2e:65:1e:70:
                    51:d9:b6:52:a8:ce:a9:01:2d:54:85:99:f9:f2:0d:
                    5d:e6:0d:b8:b7:20:f6:d0:8c:9a:6e:d3:bd:81:e8:
                    ea:09:0c:9a:32:61:0a:ca:70:89:a0:0a:03:a9:99:
                    46:78:c7:cb:e2:04:4f:fc:f3:6c:21:0e:3d:cd:09:
                    de:71:a2:f6:50:97:84:73:1a:14:e8:d0:55:75:9d:
                    bb:7d:45:98:82:50:50:ac:3e:e2:6f:08:e3:03:c4:
                    66:b9:23:34:cb:ec:87:99:c1:ba:3c:57:85:51:67:
                    2a:c4:9d:fc:44:13:dd:b4:73:ef:af:ab:94:ae:1f:
                    87:d6:87:af:8b:df:7f:c0:d4:34:3d:18:8f:e2:6c:
                    c1:35:98:6f:d2:4c:f5:4d:08:eb:33:9e:83:ed:8f:
                    b6:c9:79:22:c9:91:d9:25:9f:b0:8a:eb:83:28:35:
                    6f:85:b4:21:f9:d1:04:e1:3f:77:42:57:d5:f1:64:
                    49:3e:d0:af:d0:ef:c9:d8:0c:58:fe:d7:1b:73:9b:
                    cb:0e:de:d7:38:10:08:7a:05:16:cb:fd:35:25:19:
                    a1:be:d8:6b:45:8b:e4:56:97:71:db:45:cb:9f:48:
                    1e:09:52:cf:80:9a:fa:37:2e:b1:cb:ec:fa:95:b6:
                    58:ec:c4:76:27:d3:98:b3:99:d1:62:77:f2:6a:96:
                    ef:cd:c0:88:f7:c2:21:82:14:e5:2a:06:f8:41:af:
                    5a:92:87:63:dc:9f:64:ae:c4:49:8c:46:c1:dc:d3:
                    24:e0:a8:b6:82:ec:bc:9f:1e:92:3b:72:d7:d9:96:
                    a3:a8:df:ee:4b:f6:d0:5a:cc:fc:1f:7c:77:8b:c7:
                    a3:35:0f:a5:c9:3a:b3:b5:c8:cc:ba:0b:02:a5:b8:
                    5b:13:55:7c:6d:83:c8:66:9f:f2:6c:78:d9:84:0e:
                    e2:92:f5:b7:5a:37:82:d3:3f:09:51:9c:1c:c7:42:
                    78:4e:93:4d:2e:bb:76:f8:9f:4d:55:5f:0b:04:b1:
                    be:53:d0:74:30:c5:07:94:f3:aa:65:b4:98:fc:0a:
                    33:2e:b3
                Exponent: 65537 (0x10001)
        X509v3 extensions:
            X509v3 Basic Constraints: 
                CA:FALSE
            Netscape Comment: 
                OpenSSL Generated Certificate
            X509v3 Subject Key Identifier: 
                FC:07:01:F7:AC:D0:0F:A2:3D:D2:7E:91:CF:38:1B:26:3A:0E:F1:C2
            X509v3 Authority Key Identifier: 
                keyid:57:70:7C:D7:CE:A0:B6:C8:15:23:97:EB:E8:4F:07:4A:5B:F9:CF:C1

    Signature Algorithm: sha256WithRSAEncryption
         42:9c:a2:cf:53:e9:83:68:0b:81:2c:78:86:2e:61:26:ff:a3:
         4e:d4:32:07:54:cb:52:a3:f0:f0:78:fa:2f:a1:ed:e5:eb:79:
         de:49:4a:71:28:22:b2:aa:53:18:ef:73:f0:9e:6b:32:3f:1d:
         3d:55:d8:03:3a:68:ae:5e:9e:1f:0b:54:57:bf:33:97:82:7c:
         44:80:cc:f2:24:63:95:93:18:e8:db:68:15:4d:41:36:6c:36:
         01:25:3b:ba:06:8e:4e:1a:a4:6c:3f:c1:e9:08:95:82:22:a7:
         bc:00:07:87:d2:7b:79:14:b1:a2:1f:95:f4:08:a0:53:b3:2f:
         94:e6:12:c1:2f:ed:9e:68:c0:6d:50:17:93:48:14:62:73:98:
         09:72:9f:ad:69:55:14:33:67:25:ce:b9:8f:b4:3a:36:79:d0:
         2b:f3:f6:ed:fe:89:f9:b8:f1:bf:b8:3b:50:73:47:47:d7:01:
         42:ba:c5:63:25:3a:3d:d2:c4:16:29:ff:2b:fd:03:74:93:88:
         cc:10:dc:c8:32:9b:96:7d:47:c7:6b:5b:dd:15:1c:c5:7e:31:
         0c:dc:07:35:e5:fc:29:35:ef:b5:32:01:2b:81:b9:ae:8b:d2:
         40:d2:4e:80:ea:10:85:31:b2:61:54:25:78:1a:e7:b9:81:78:
         cc:94:21:85:28:ae:e4:f4:66:6b:37:c6:de:4b:99:8b:56:4c:
         c1:31:01:12:4d:e0:7b:00:de:66:ac:9c:a6:4c:1f:31:43:08:
         da:86:89:18:52:c0:87:95:c4:f4:f0:fd:9d:41:85:1c:c4:1b:
         45:36:06:2b:64:3a:9b:53:98:da:0b:ac:ca:2a:ad:7f:0b:06:
         f6:b5:01:1b:a3:43:d5:a8:c2:be:e5:94:80:c7:c7:7d:47:86:
         54:33:ba:72:dc:76:48:53:28:08:2c:6e:90:97:26:f6:d1:be:
         85:dc:f0:30:f8:b8:a3:2f:46:f9:4d:60:7e:ab:94:62:af:b4:
         ec:a2:53:71:34:9d:65:f8:40:a7:dd:fc:38:94:5f:05:79:98:
         6f:be:04:45:08:08:5a:fa:9e:b1:40:9e:79:d0:62:3e:bc:3c:
         eb:ac:5e:d2:c2:a1:85:07:b7:dc:95:e5:78:34:2c:11:a9:80:
         da:cc:dc:0f:46:7d:a4:c3:a2:e6:10:7f:72:14:b9:7d:03:bc:
         9b:f4:1c:d4:2d:89:d7:92:76:7c:fd:4f:05:7c:69:b0:eb:90:
         fb:c1:bc:8d:16:bf:2c:f6:9f:1f:42:20:6c:0a:bc:c6:cf:85:
         f7:7e:64:08:c2:81:07:cd:22:40:01:da:b1:1e:af:7b:31:fe:
         5d:a3:83:a8:67:0e:bd:06
-----BEGIN CERTIFICATE-----
MIIF9DCCA9ygAwIBAgIBATANBgkqhkiG9w0BAQsFADCBhzELMAkGA1UEBhMCSU4x
EjAQBgNVBAgMCUpoYXJraGFuZDEPMA0GA1UEBwwGUmFuY2hpMQ0wCwYDVQQKDARO
b25lMQ0wCwYDVQQLDAROb25lMQ8wDQYDVQQDDAZwYmtkZXYxJDAiBgkqhkiG9w0B
CQEWFWF5dXNoYXNoaTExQGdtYWlsLmNvbTAeFw0yMDA1MTAxMDM5NTZaFw0yMTA1
MTAxMDM5NTZaMHYxCzAJBgNVBAYTAklOMRIwEAYDVQQIDAlKaGFya2hhbmQxDTAL
BgNVBAoMBE5vbmUxDTALBgNVBAsMBE5vbmUxDzANBgNVBAMMBnBia2RldjEkMCIG
CSqGSIb3DQEJARYVYXl1c2hhc2hpMTFAZ21haWwuY29tMIICIjANBgkqhkiG9w0B
AQEFAAOCAg8AMIICCgKCAgEA97iFD5IyPA7tpU0GSiOrq3h3Hu01yVHQADI5Ybb0
cpEowkAnrVibqHpKj5GC74XEVVIHhc0w2k7iiK3Kd61m5XLRAD8s5PtppMm2PSJS
OcZ28Z4n5q+J2H7H1cjnRfvXh3D+N/T6M7zhy+acAtPuICI0vi5lHnBR2bZSqM6p
AS1UhZn58g1d5g24tyD20IyabtO9gejqCQyaMmEKynCJoAoDqZlGeMfL4gRP/PNs
IQ49zQnecaL2UJeEcxoU6NBVdZ27fUWYglBQrD7ibwjjA8RmuSM0y+yHmcG6PFeF
UWcqxJ38RBPdtHPvr6uUrh+H1oevi99/wNQ0PRiP4mzBNZhv0kz1TQjrM56D7Y+2
yXkiyZHZJZ+wiuuDKDVvhbQh+dEE4T93QlfV8WRJPtCv0O/J2AxY/tcbc5vLDt7X
OBAIegUWy/01JRmhvthrRYvkVpdx20XLn0geCVLPgJr6Ny6xy+z6lbZY7MR2J9OY
s5nRYnfyapbvzcCI98IhghTlKgb4Qa9akodj3J9krsRJjEbB3NMk4Ki2guy8nx6S
O3LX2ZajqN/uS/bQWsz8H3x3i8ejNQ+lyTqztcjMugsCpbhbE1V8bYPIZp/ybHjZ
hA7ikvW3WjeC0z8JUZwcx0J4TpNNLrt2+J9NVV8LBLG+U9B0MMUHlPOqZbSY/Aoz
LrMCAwEAAaN7MHkwCQYDVR0TBAIwADAsBglghkgBhvhCAQ0EHxYdT3BlblNTTCBH
ZW5lcmF0ZWQgQ2VydGlmaWNhdGUwHQYDVR0OBBYEFPwHAfes0A+iPdJ+kc84GyY6
DvHCMB8GA1UdIwQYMBaAFFdwfNfOoLbIFSOX6+hPB0pb+c/BMA0GCSqGSIb3DQEB
CwUAA4ICAQBCnKLPU+mDaAuBLHiGLmEm/6NO1DIHVMtSo/DwePovoe3l63neSUpx
KCKyqlMY73PwnmsyPx09VdgDOmiuXp4fC1RXvzOXgnxEgMzyJGOVkxjo22gVTUE2
bDYBJTu6Bo5OGqRsP8HpCJWCIqe8AAeH0nt5FLGiH5X0CKBTsy+U5hLBL+2eaMBt
UBeTSBRic5gJcp+taVUUM2clzrmPtDo2edAr8/bt/on5uPG/uDtQc0dH1wFCusVj
JTo90sQWKf8r/QN0k4jMENzIMpuWfUfHa1vdFRzFfjEM3Ac15fwpNe+1MgErgbmu
i9JA0k6A6hCFMbJhVCV4Gue5gXjMlCGFKK7k9GZrN8beS5mLVkzBMQESTeB7AN5m
rJymTB8xQwjahokYUsCHlcT08P2dQYUcxBtFNgYrZDqbU5jaC6zKKq1/Cwb2tQEb
o0PVqMK+5ZSAx8d9R4ZUM7py3HZIUygILG6Qlyb20b6F3PAw+LijL0b5TWB+q5Ri
r7TsolNxNJ1l+ECn3fw4lF8FeZhvvgRFCAha+p6xQJ550GI+vDzrrF7SwqGFB7fc
leV4NCwRqYDazNwPRn2kw6LmEH9yFLl9A7yb9BzULYnXknZ8/U8FfGmw65D7wbyN
Fr8s9p8fQiBsCrzGz4X3fmQIwoEHzSJAAdqxHq97Mf5do4OoZw69Bg==
-----END CERTIFICATE-----
-----BEGIN PRIVATE KEY-----
MIIJQQIBADANBgkqhkiG9w0BAQEFAASCCSswggknAgEAAoICAQD3uIUPkjI8Du2l
TQZKI6ureHce7TXJUdAAMjlhtvRykSjCQCetWJuoekqPkYLvhcRVUgeFzTDaTuKI
rcp3rWblctEAPyzk+2mkybY9IlI5xnbxnifmr4nYfsfVyOdF+9eHcP439PozvOHL
5pwC0+4gIjS+LmUecFHZtlKozqkBLVSFmfnyDV3mDbi3IPbQjJpu072B6OoJDJoy
YQrKcImgCgOpmUZ4x8viBE/882whDj3NCd5xovZQl4RzGhTo0FV1nbt9RZiCUFCs
PuJvCOMDxGa5IzTL7IeZwbo8V4VRZyrEnfxEE920c++vq5SuH4fWh6+L33/A1DQ9
GI/ibME1mG/STPVNCOsznoPtj7bJeSLJkdkln7CK64MoNW+FtCH50QThP3dCV9Xx
ZEk+0K/Q78nYDFj+1xtzm8sO3tc4EAh6BRbL/TUlGaG+2GtFi+RWl3HbRcufSB4J
Us+Amvo3LrHL7PqVtljsxHYn05izmdFid/Jqlu/NwIj3wiGCFOUqBvhBr1qSh2Pc
n2SuxEmMRsHc0yTgqLaC7LyfHpI7ctfZlqOo3+5L9tBazPwffHeLx6M1D6XJOrO1
yMy6CwKluFsTVXxtg8hmn/JseNmEDuKS9bdaN4LTPwlRnBzHQnhOk00uu3b4n01V
XwsEsb5T0HQwxQeU86pltJj8CjMuswIDAQABAoICAHmSWeL5aaPl46UjNvn9pYti
dHt+CM6DUyQ1gcm9wxvSt4EVgSNmgAXf9mWdEPhB2sfQmRaGS/pnim9vcxTmyb/D
aGTJnFvIMuGHiONZy6bFCqyrZIOnFGxmU+ZMUYwb+3th7bFCjeQER4AM7fXJUmz8
vIu1MzUMBG9nNgvYWELWn0tt9Kdg/fsgMs3U5KwWxNetHKz7xJeqUqZ0z5noPvKG
16NNMLOnwhxq52KJiEB0v8m3lS6Jvn5wzbS7URWs4LP3NANXu3AAwIa32eKKJvc7
VPp5F7kYnLfNxntErI31ppyVuC8k3MJpv3CkMTR/Dugu8O0hQ4471mNBgaOqoeqX
ccYuCGSgQCo0xyNaA9y7hJXIysdU4sARRD5Xd29QsvoklILsDVYx+Ij9hFCiGkrK
X6JtK/WW2YBr9jV2ntjmCTbT3FyvhOo+Uk2Td0gBNWiwNYs+2C1R7B8g/NNLvVT1
jKNTXrvasUcWZqBGtybB0MhV3ARYFe+eUv4yh2bHwlBarAQSaan+uM03++9IeV1u
DUxSuYfObyLokfjTnNXFn0t0+GuYoP53fSk7osf08lYff/F13b/gVFVlFQhcX+m8
9qG9h+vjrcoDi6pHyNvevAP/GN7/gC5RdKDdlJ+loeZMGkVcrmn3Gs2Y8jXRj3zw
MYS91cke/pMHr0yP7e8xAoIBAQD/BHgIfhHwsr0tS4GHwmcpaV1ONlBofpasaXQt
jfyZ07Y4WN1KYe+iXTEDZrOI9xCLqAoSab1MM+i/Zm1exlJgTfUncBL9WD/czJoA
iAACVjCtZSA3DkXAdujoNUaqWfLrZjXyW9yZhVIkIfFWFTe4+gjxWGMGf6gDO2ub
KMAAJHYfJhoYUt0840HBG+5FiTB3ZIPpnr52pjqQo3Zua21UA3LCB7nwm4Hnm18M
/PIqwpqDm8u7uf21M1E+3ZgQBL3JtJRwV6qJ1mry3ZY8dwC8uKL1+Gn/naXfmfSr
+i0qwXh0Op/mtAmWHDi4Bx9AuAPclIbofhETcNQSZdwDzRl7AoIBAQD4rNqdfuP7
L6Xde3CI75gtkVg6LP38krWpQNGyr0wVoZW7yKpegx8vUz0mhhX4agydEhQLgYlt
DD3HINxUeDb8Od0KQzODKk2Vj22H6YxC2ygbLHQWhUgxgxgAnVwvW4PoWoz1+qtA
dcOGR6nR8bHaBAJPFOfwwt1MYpysAl7locuXzzxOFXNucOCmivr+bo1WoTsELGLw
JNLC2QzhjPg8/M+rnGX//mcCEaE0b4EOCH4HsBKYWtTbeE7guHrF3DqHSzwjSSgo
/wPjOWNYcuFfhUxcEZKarbmjIW/5stNRr8DINNf0e080tUHXSnVuDaepESv+6vaO
tuoJhtlBci4pAoIBAG3pKSrP2z+YabyZ7Gvst7W7ecF521IOLTaGBNKVfad2/fRv
KIEkkLmz3KoQm5SOl4z5kc250SKExO2pYb4VT++96cljnmuem3e4ny9XblmTeEtj
aG0SM7HuDhf2zkwhlHcsiFe6i+uG8I4uKuvlHS0WZsBOTe/BGVK7S3eGKqplDJwE
Of79x+i0MeTe+uTxafgrVEdeacyNfHRWX3bbyjUJf25tEhDHlUeTSXY5ls4jLaFH
hpmUYeq1AXFM5HsS8BF9SPTac+AQj+u44UWSLLkqAuJsfJL1CUbD/hYZL1pcJGRD
2CMAuZj+9NssBqZIKTHqufJ+UzHD0UNUr2zb+v0CggEAWW9BSLdkIuimDJvigz04
S9skEfgweHADKZYIVO06veTZRyoKK+eYhZq4OWyr5iWt16ey0diKpk9qwH0PAMoj
bF8bIh+9HQVP1eQ5jlHugfTz3aIFNjxFFJmDPmVZzCZrsFswqx62DH7ODTMk3j7A
qhobAnoQWMScdmZY1nwbyRaBdF2x4JtSYnvyL7N4RZ1Y87kU0pFsG9YCftU1DsF2
XejGf3/GJ2VFgrb4dTVNAtEHEpi+d1DjkPMZ2zQ9438rBZGHVWFwMh5VNZlkI2Fd
sM7uAYbIZRzp0MOr0+/+lDhTay2mJWVbvScbQOSkiyoaDHICkrHKbtVWIor/A8ye
0QKCAQAtn/Wsk4PSrfgg6z4j7mlSpRaK37LWR9kY4YifHrmsOgtUtxRpJJooYP2O
uX0FZ81zWucAjnB6UR2iXw9BsqGESMTQqQzFCa7N6hcL47Ajt6SH0Yrk7WRJSS8/
ZlkIgCCnN9lWQcuftcOjhTCYEEbsBr2d+FYFvIeIJVFDzal7RwxjeFXQDm3+XeH4
CVBR+cQGw7AWCB71FBiKkAewKGSI9NBvfY8HE4hOOh4AxNes4DHnfFwfwTJ0qu2o
X8jllZdgbTObmJkvFBQD2lP9lZvXaBxqO0Qp8ZEMv6JMj46T192kqbvpfUfE7D4R
evCjHFvZf2E8QhUzauU4DPeZe3ZO
-----END PRIVATE KEY-----
